target datalayout = "e-m:e-p270:32:32-p271:32:32-p272:64:64-i64:64-i128:128-f80:128-n8:16:32:64-S128"
target triple = "x86_64-pc-linux-gnu"

; Function Attrs: nounwind uwtable
define internal ptr @decode_strings(ptr noundef %0, i64 noundef %1) #0 {
  %3 = alloca ptr, align 8
  %4 = alloca ptr, align 8
  %5 = alloca i64, align 8
  %6 = alloca i64, align 8
  %7 = alloca i64, align 8
  %8 = alloca ptr, align 8
  %9 = alloca i32, align 4
  %10 = alloca ptr, align 8
  store ptr %0, ptr %4, align 8, !tbaa !20
  store i64 %1, ptr %5, align 8, !tbaa !18
  call void @llvm.lifetime.start.p0(i64 8, ptr %6) #9
  store i64 0, ptr %6, align 8, !tbaa !18
  call void @llvm.lifetime.start.p0(i64 8, ptr %7) #9
  store i64 0, ptr %7, align 8, !tbaa !18
  br label %11

11:                                               ; preds = %32, %2
  %12 = load i64, ptr %7, align 8, !tbaa !18
  %13 = load i64, ptr %5, align 8, !tbaa !18
  %14 = icmp ult i64 %12, %13
  br i1 %14, label %15, label %22

15:                                               ; preds = %11
  %16 = load ptr, ptr %4, align 8, !tbaa !20
  %17 = load i64, ptr %6, align 8, !tbaa !18
  %18 = getelementptr i8, ptr %16, i64 %17
  %19 = load i8, ptr %18, align 1, !tbaa !52
  %20 = sext i8 %19 to i32
  %21 = icmp ne i32 %20, 0
  br label %22

22:                                               ; preds = %15, %11
  %23 = phi i1 [ false, %11 ], [ %21, %15 ]
  br i1 %23, label %24, label %35

24:                                               ; preds = %22
  %25 = load ptr, ptr %4, align 8, !tbaa !20
  %26 = load i64, ptr %6, align 8, !tbaa !18
  %27 = getelementptr i8, ptr %25, i64 %26
  %28 = call i64 @strlen(ptr noundef %27) #10
  %29 = add i64 %28, 1
  %30 = load i64, ptr %6, align 8, !tbaa !18
  %31 = add i64 %30, %29
  store i64 %31, ptr %6, align 8, !tbaa !18
  br label %32

32:                                               ; preds = %24
  %33 = load i64, ptr %7, align 8, !tbaa !18
  %34 = add i64 %33, 1
  store i64 %34, ptr %7, align 8, !tbaa !18
  br label %11, !llvm.loop !68

35:                                               ; preds = %22
  call void @llvm.lifetime.start.p0(i64 8, ptr %8) #9
  %36 = load i64, ptr %6, align 8, !tbaa !18
  %37 = call ptr @PyMem_Malloc(i64 noundef %36)
  store ptr %37, ptr %8, align 8, !tbaa !20
  %38 = load ptr, ptr %8, align 8, !tbaa !20
  %39 = icmp eq ptr %38, null
  br i1 %39, label %40, label %42

40:                                               ; preds = %35
  %41 = call ptr @PyErr_NoMemory()
  store ptr null, ptr %3, align 8
  store i32 1, ptr %9, align 4
  br label %66

42:                                               ; preds = %35
  %43 = load ptr, ptr %8, align 8, !tbaa !20
  %44 = load ptr, ptr %4, align 8, !tbaa !20
  %45 = load i64, ptr %6, align 8, !tbaa !18
  call void @llvm.memcpy.p0.p0.i64(ptr align 1 %43, ptr align 1 %44, i64 %45, i1 false)
  store i64 0, ptr %6, align 8, !tbaa !18
  br label %46

46:                                               ; preds = %50, %42
  %47 = load i64, ptr %7, align 8, !tbaa !18
  %48 = add i64 %47, -1
  store i64 %48, ptr %7, align 8, !tbaa !18
  %49 = icmp ne i64 %48, 0
  br i1 %49, label %50, label %61

50:                                               ; preds = %46
  %51 = load ptr, ptr %8, align 8, !tbaa !20
  %52 = load i64, ptr %6, align 8, !tbaa !18
  %53 = getelementptr i8, ptr %51, i64 %52
  %54 = call i64 @strlen(ptr noundef %53) #10
  %55 = load i64, ptr %6, align 8, !tbaa !18
  %56 = add i64 %55, %54
  store i64 %56, ptr %6, align 8, !tbaa !18
  %57 = load ptr, ptr %8, align 8, !tbaa !20
  %58 = load i64, ptr %6, align 8, !tbaa !18
  %59 = add i64 %58, 1
  store i64 %59, ptr %6, align 8, !tbaa !18
  %60 = getelementptr i8, ptr %57, i64 %58
  store i8 59, ptr %60, align 1, !tbaa !52
  br label %46, !llvm.loop !69

61:                                               ; preds = %46
  call void @llvm.lifetime.start.p0(i64 8, ptr %10) #9
  %62 = load ptr, ptr %8, align 8, !tbaa !20
  %63 = call ptr @PyUnicode_DecodeLocale(ptr noundef %62, ptr noundef null)
  store ptr %63, ptr %10, align 8, !tbaa !4
  %64 = load ptr, ptr %8, align 8, !tbaa !20
  call void @PyMem_Free(ptr noundef %64)
  %65 = load ptr, ptr %10, align 8, !tbaa !4
  store ptr %65, ptr %3, align 8
  store i32 1, ptr %9, align 4
  call void @llvm.lifetime.end.p0(i64 8, ptr %10) #9
  br label %66

66:                                               ; preds = %61, %40
  call void @llvm.lifetime.end.p0(i64 8, ptr %8) #9
  call void @llvm.lifetime.end.p0(i64 8, ptr %7) #9
  call void @llvm.lifetime.end.p0(i64 8, ptr %6) #9
  %67 = load ptr, ptr %3, align 8
  ret ptr %67
}