; Function Attrs: nounwind uwtable
define internal fastcc ptr @decode_strings(ptr noundef readonly captures(none) %0, i64 noundef range(i64 -1, 101) %1) unnamed_addr #0 {
  %.not37 = icmp eq i64 %1, 0
  br i1 %.not37, label %.critedge, label %.lr.ph

.lr.ph:                                           ; preds = %2, %5
  %.02229 = phi i64 [ %8, %5 ], [ 0, %2 ]
  %.02328 = phi i64 [ %9, %5 ], [ 0, %2 ]
  %3 = getelementptr i8, ptr %0, i64 %.02229
  %4 = load i8, ptr %3, align 1, !tbaa !11
  %.not = icmp eq i8 %4, 0
  br i1 %.not, label %.critedge.loopexit, label %5

5:                                                ; preds = %.lr.ph
  %6 = tail call i64 @strlen(ptr noundef nonnull dereferenceable(1) %3) #9
  %7 = add i64 %.02229, 1
  %8 = add i64 %7, %6
  %9 = add nuw i64 %.02328, 1
  %exitcond.not = icmp eq i64 %9, %1
  br i1 %exitcond.not, label %.critedge.loopexit, label %.lr.ph, !llvm.loop !54

.critedge.loopexit:                               ; preds = %5, %.lr.ph
  %.023.lcssa.ph = phi i64 [ %.02328, %.lr.ph ], [ %1, %5 ]
  %.022.lcssa.ph = phi i64 [ %.02229, %.lr.ph ], [ %8, %5 ]
  %10 = add i64 %.023.lcssa.ph, -1
  br label %.critedge

.critedge:                                        ; preds = %.critedge.loopexit, %2
  %.023.lcssa = phi i64 [ -1, %2 ], [ %10, %.critedge.loopexit ]
  %.022.lcssa = phi i64 [ 0, %2 ], [ %.022.lcssa.ph, %.critedge.loopexit ]
  %11 = tail call ptr @PyMem_Malloc(i64 noundef %.022.lcssa) #8
  %12 = icmp eq ptr %11, null
  br i1 %12, label %13, label %15

13:                                               ; preds = %.critedge
  %14 = tail call ptr @PyErr_NoMemory() #8
  br label %24

15:                                               ; preds = %.critedge
  tail call void @llvm.memcpy.p0.p0.i64(ptr nonnull align 1 %11, ptr align 1 %0, i64 %.022.lcssa, i1 false)
  %.not2734 = icmp eq i64 %.023.lcssa, 0
  br i1 %.not2734, label %._crit_edge, label %.lr.ph36

.lr.ph36:                                         ; preds = %15, %.lr.ph36
  %16 = phi i64 [ %22, %.lr.ph36 ], [ %.023.lcssa, %15 ]
  %.135 = phi i64 [ %20, %.lr.ph36 ], [ 0, %15 ]
  %17 = getelementptr i8, ptr %11, i64 %.135
  %18 = tail call i64 @strlen(ptr noundef nonnull dereferenceable(1) %17) #9
  %19 = add i64 %18, %.135
  %20 = add i64 %19, 1
  %21 = getelementptr i8, ptr %11, i64 %19
  store i8 59, ptr %21, align 1, !tbaa !11
  %22 = add i64 %16, -1
  %.not27 = icmp eq i64 %22, 0
  br i1 %.not27, label %._crit_edge, label %.lr.ph36, !llvm.loop !55

._crit_edge:                                      ; preds = %.lr.ph36, %15
  %23 = tail call ptr @PyUnicode_DecodeLocale(ptr noundef nonnull %11, ptr noundef null) #8
  tail call void @PyMem_Free(ptr noundef nonnull %11) #8
  br label %24

24:                                               ; preds = %._crit_edge, %13
  %.0 = phi ptr [ null, %13 ], [ %23, %._crit_edge ]
  ret ptr %.0
}